target datalayout = "e-m:e-p270:32:32-p271:32:32-p272:64:64-i64:64-i128:128-f80:128-n8:16:32:64-S128"
target triple = "x86_64-unknown-linux-gnu"

%struct.EHCIState = type { %struct.USBBus, ptr, ptr, %struct.MemoryRegion, ptr, %struct.MemoryRegion, %struct.MemoryRegion, %struct.MemoryRegion, i32, i8, i16, i16, i16, i16, i32, [16 x i8], %union.anon.5, [6 x i32], ptr, ptr, i8, i32, i32, [6 x %struct.USBPort], [6 x ptr], i32, i32, %union.EHCIQueueHead, %union.EHCIQueueHead, i32, i32, %struct.USBPacket, %struct.QEMUSGList, i64, i32, i32, i8, ptr }
%struct.USBBus = type { %struct.BusState, ptr, i32, i32, i32, %union.anon, %union.anon.0, %union.anon.1 }
%struct.BusState = type { %struct.Object, ptr, ptr, ptr, i32, i8, i8, i32, %union.BusChildHead, %struct.BusStateEntry, %struct.ResettableState }
%struct.Object = type { ptr, ptr, ptr, i32, ptr }
%union.BusChildHead = type { %struct.QTailQLink }
%struct.QTailQLink = type { ptr, ptr }
%struct.BusStateEntry = type { ptr, ptr }
%struct.ResettableState = type { i32, i8, i8 }
%union.anon = type { %struct.QTailQLink }
%union.anon.0 = type { %struct.QTailQLink }
%union.anon.1 = type { %struct.QTailQLink }
%struct.MemoryRegion = type { %struct.Object, i8, i8, i8, i8, i8, i8, i8, i8, i8, i8, ptr, ptr, ptr, ptr, ptr, ptr, i32, i128, i64, ptr, i64, i8, i8, i8, i8, i8, ptr, i64, i32, %union.anon.2, %union.anon.3, %union.anon.4, ptr, i32, ptr, ptr, i8 }
%union.anon.2 = type { %struct.QTailQLink }
%union.anon.3 = type { %struct.QTailQLink }
%union.anon.4 = type { %struct.QTailQLink }
%union.anon.5 = type { [17 x i32] }
%struct.USBPort = type { ptr, i32, i32, [16 x i8], ptr, ptr, i32, %union.anon.6 }
%union.anon.6 = type { %struct.QTailQLink }
%union.EHCIQueueHead = type { %struct.QTailQLink }
%struct.USBPacket = type { i32, i64, ptr, i32, %struct.QEMUIOVector, i64, i8, i8, i32, i32, i32, ptr, %union.anon.10, %union.anon.11 }
%struct.QEMUIOVector = type { ptr, i32, %union.anon.7 }
%union.anon.7 = type { %struct.anon.8 }
%struct.anon.8 = type { i32, %struct.iovec }
%struct.iovec = type { ptr, i64 }
%union.anon.10 = type { %struct.QTailQLink }
%union.anon.11 = type { %struct.QTailQLink }
%struct.QEMUSGList = type { ptr, i32, i32, i64, ptr, ptr }
%struct.EHCIQueue = type { ptr, %union.anon.16, i32, i64, i32, i32, %struct.EHCIqh, i32, i32, i32, ptr, %union.anon.17 }
%union.anon.16 = type { %struct.QTailQLink }
%struct.EHCIqh = type { i32, i32, i32, i32, i32, i32, i32, [5 x i32] }
%union.anon.17 = type { %struct.QTailQLink }

; Function Attrs: nounwind sspstrong uwtable
define internal void @ehci_queues_rip_unseen(ptr noundef %ehci, i32 noundef %async) #0 {
entry:
  %ehci.addr = alloca ptr, align 8
  %async.addr = alloca i32, align 4
  %head = alloca ptr, align 8
  %q = alloca ptr, align 8
  %tmp = alloca ptr, align 8
  store ptr %ehci, ptr %ehci.addr, align 8
  store i32 %async, ptr %async.addr, align 4
  %0 = load i32, ptr %async.addr, align 4
  %tobool = icmp ne i32 %0, 0
  br i1 %tobool, label %cond.true, label %cond.false

cond.true:                                        ; preds = %entry
  %1 = load ptr, ptr %ehci.addr, align 8
  %aqueues = getelementptr inbounds %struct.EHCIState, ptr %1, i32 0, i32 27
  br label %cond.end

cond.false:                                       ; preds = %entry
  %2 = load ptr, ptr %ehci.addr, align 8
  %pqueues = getelementptr inbounds %struct.EHCIState, ptr %2, i32 0, i32 28
  br label %cond.end

cond.end:                                         ; preds = %cond.false, %cond.true
  %cond = phi ptr [ %aqueues, %cond.true ], [ %pqueues, %cond.false ]
  store ptr %cond, ptr %head, align 8
  %3 = load ptr, ptr %head, align 8
  %4 = load ptr, ptr %3, align 8
  store ptr %4, ptr %q, align 8
  br label %for.cond

for.cond:                                         ; preds = %for.inc, %cond.end
  %5 = load ptr, ptr %q, align 8
  %tobool1 = icmp ne ptr %5, null
  br i1 %tobool1, label %land.rhs, label %land.end

land.rhs:                                         ; preds = %for.cond
  %6 = load ptr, ptr %q, align 8
  %next = getelementptr inbounds %struct.EHCIQueue, ptr %6, i32 0, i32 1
  %7 = load ptr, ptr %next, align 8
  store ptr %7, ptr %tmp, align 8
  br label %land.end

land.end:                                         ; preds = %land.rhs, %for.cond
  %8 = phi i1 [ false, %for.cond ], [ true, %land.rhs ]
  br i1 %8, label %for.body, label %for.end

for.body:                                         ; preds = %land.end
  %9 = load ptr, ptr %q, align 8
  %seen = getelementptr inbounds %struct.EHCIQueue, ptr %9, i32 0, i32 2
  %10 = load i32, ptr %seen, align 8
  %tobool2 = icmp ne i32 %10, 0
  br i1 %tobool2, label %if.end, label %if.then

if.then:                                          ; preds = %for.body
  %11 = load ptr, ptr %q, align 8
  call void @ehci_free_queue(ptr noundef %11, ptr noundef null)
  br label %if.end

if.end:                                           ; preds = %if.then, %for.body
  br label %for.inc

for.inc:                                          ; preds = %if.end
  %12 = load ptr, ptr %tmp, align 8
  store ptr %12, ptr %q, align 8
  br label %for.cond, !llvm.loop !29

for.end:                                          ; preds = %land.end
  ret void
}

; Function Attrs: nounwind sspstrong uwtable
define internal void @usb_ehci_vm_state_change(ptr noundef %opaque, i1 noundef zeroext %running, i32 noundef %state) #0 {
entry:
  %opaque.addr = alloca ptr, align 8
  %running.addr = alloca i8, align 1
  %state.addr = alloca i32, align 4
  %ehci = alloca ptr, align 8
  store ptr %opaque, ptr %opaque.addr, align 8
  %frombool = zext i1 %running to i8
  store i8 %frombool, ptr %running.addr, align 1
  store i32 %state, ptr %state.addr, align 4
  %0 = load ptr, ptr %opaque.addr, align 8
  store ptr %0, ptr %ehci, align 8
  %1 = load i32, ptr %state.addr, align 4
  %cmp = icmp eq i32 %1, 9
  br i1 %cmp, label %if.then, label %if.end

if.then:                                          ; preds = %entry
  %2 = load ptr, ptr %ehci, align 8
  call void @ehci_advance_async_state(ptr noundef %2)
  br label %if.end

if.end:                                           ; preds = %if.then, %entry
  %3 = load i32, ptr %state.addr, align 4
  %cmp1 = icmp eq i32 %3, 10
  br i1 %cmp1, label %if.then2, label %if.end3

if.then2:                                         ; preds = %if.end
  %4 = load ptr, ptr %ehci, align 8
  call void @ehci_advance_async_state(ptr noundef %4)
  %5 = load ptr, ptr %ehci, align 8
  call void @ehci_queues_rip_unseen(ptr noundef %5, i32 noundef 1)
  br label %if.end3

if.end3:                                          ; preds = %if.then2, %if.end
  ret void
}