; Function Attrs: nounwind sspstrong uwtable
define internal void @usb_ehci_vm_state_change(ptr noundef %opaque, i1 zeroext %running, i32 noundef %state) #0 {
entry:
  switch i32 %state, label %if.end3 [
    i32 9, label %if.then
    i32 10, label %if.then2
  ]

if.then:                                          ; preds = %entry
  tail call fastcc void @ehci_advance_async_state(ptr noundef %opaque)
  br label %if.end3

if.then2:                                         ; preds = %entry
  tail call fastcc void @ehci_advance_async_state(ptr noundef %opaque)
  %0 = getelementptr i8, ptr %opaque, i64 1960
  %opaque.val = load ptr, ptr %0, align 8
  %tobool1.not1.i = icmp eq ptr %opaque.val, null
  br i1 %tobool1.not1.i, label %if.end3, label %land.rhs.i

land.rhs.i:                                       ; preds = %if.then2, %for.inc.i
  %q.02.i = phi ptr [ %1, %for.inc.i ], [ %opaque.val, %if.then2 ]
  %next.i = getelementptr inbounds nuw i8, ptr %q.02.i, i64 8
  %1 = load ptr, ptr %next.i, align 8
  %seen.i = getelementptr inbounds nuw i8, ptr %q.02.i, i64 24
  %2 = load i32, ptr %seen.i, align 8
  %tobool2.not.i = icmp eq i32 %2, 0
  br i1 %tobool2.not.i, label %if.then.i, label %for.inc.i

if.then.i:                                        ; preds = %land.rhs.i
  tail call fastcc void @ehci_free_queue(ptr noundef %q.02.i, ptr noundef null)
  br label %for.inc.i

for.inc.i:                                        ; preds = %if.then.i, %land.rhs.i
  %tobool1.not.i = icmp eq ptr %1, null
  br i1 %tobool1.not.i, label %if.end3, label %land.rhs.i, !llvm.loop !13

if.end3:                                          ; preds = %for.inc.i, %if.then2, %if.then, %entry
  ret void
}